; Function Attrs: mustprogress nounwind uwtable
define void @_ZN6icu_756number29LocalizedNumberRangeFormatterD2Ev(ptr noundef nonnull align 8 dereferenceable(1216) %this) unnamed_addr #0 align 2 personality ptr @__gxx_personality_v0 {
entry:
  %fAtomicFormatter = getelementptr inbounds i8, ptr %this, i64 1208
  %0 = atomicrmw xchg ptr %fAtomicFormatter, i64 0 seq_cst, align 8
  %atomic-temp.i.0.i = inttoptr i64 %0 to ptr
  %isnull = icmp eq i64 %0, 0
  br i1 %isnull, label %delete.end, label %delete.notnull

delete.notnull:                                   ; preds = %entry
  %needToRelease.i.i.i.i = getelementptr inbounds i8, ptr %atomic-temp.i.0.i, i64 1908
  %1 = load i8, ptr %needToRelease.i.i.i.i, align 4
  %tobool.not.i.i.i.i = icmp eq i8 %1, 0
  br i1 %tobool.not.i.i.i.i, label %_ZN6icu_756number4impl24NumberRangeFormatterImplD2Ev.exit, label %if.then.i.i.i.i

if.then.i.i.i.i:                                  ; preds = %delete.notnull
  %fPluralRanges.i = getelementptr inbounds i8, ptr %atomic-temp.i.0.i, i64 1896
  %2 = load ptr, ptr %fPluralRanges.i, align 8
  invoke void @uprv_free_75(ptr noundef %2)
          to label %_ZN6icu_756number4impl24NumberRangeFormatterImplD2Ev.exit unwind label %terminate.lpad.i.i.i

terminate.lpad.i.i.i:                             ; preds = %if.then.i.i.i.i
  %3 = landingpad { ptr, i32 }
          catch ptr null
  %4 = extractvalue { ptr, i32 } %3, 0
  tail call void @__clang_call_terminate(ptr %4) #12
  unreachable

_ZN6icu_756number4impl24NumberRangeFormatterImplD2Ev.exit: ; preds = %delete.notnull, %if.then.i.i.i.i
  %fApproximatelyFormatter.i = getelementptr inbounds i8, ptr %atomic-temp.i.0.i, i64 1296
  tail call void @_ZN6icu_756number4impl19NumberFormatterImplD2Ev(ptr noundef nonnull align 8 dereferenceable(600) %fApproximatelyFormatter.i) #10
  %fRangeFormatter.i = getelementptr inbounds i8, ptr %atomic-temp.i.0.i, i64 1224
  tail call void @_ZN6icu_7515SimpleFormatterD1Ev(ptr noundef nonnull align 8 dereferenceable(72) %fRangeFormatter.i) #10
  %formatterImpl2.i = getelementptr inbounds i8, ptr %atomic-temp.i.0.i, i64 608
  tail call void @_ZN6icu_756number4impl19NumberFormatterImplD2Ev(ptr noundef nonnull align 8 dereferenceable(600) %formatterImpl2.i) #10
  %formatterImpl1.i = getelementptr inbounds i8, ptr %atomic-temp.i.0.i, i64 8
  tail call void @_ZN6icu_756number4impl19NumberFormatterImplD2Ev(ptr noundef nonnull align 8 dereferenceable(600) %formatterImpl1.i) #10
  tail call void @_ZN6icu_757UMemorydlEPv(ptr noundef nonnull %atomic-temp.i.0.i) #10
  br label %delete.end

delete.end:                                       ; preds = %_ZN6icu_756number4impl24NumberRangeFormatterImplD2Ev.exit, %entry
  tail call void @_ZN6icu_756number4impl15RangeMacroPropsD2Ev(ptr noundef nonnull align 8 dereferenceable(1208) %this) #10
  ret void
}